target datalayout = "e-m:e-p270:32:32-p271:32:32-p272:64:64-i64:64-i128:128-f80:128-n8:16:32:64-S128"
target triple = "x86_64-pc-linux-gnu"

%struct.expert_field = type { i32, i32 }

@hf_eip_security_num_crl = internal global i32 0, align 4
@ett_eip_security_crl = internal global i32 0, align 4
@ei_mal_eip_security_crl = internal global %struct.expert_field zeroinitializer, align 4

; Function Attrs: null_pointer_is_valid sspstrong uwtable
define internal i32 @dissect_eip_security_cert_epath_list(ptr noundef %0, ptr noundef %1, ptr noundef %2, ptr noundef %3, i32 noundef %4, i32 noundef %5, ptr noundef %6, i32 noundef %7, i32 noundef %8) #0 {
  %10 = alloca i32, align 4
  %11 = alloca ptr, align 8
  %12 = alloca ptr, align 8
  %13 = alloca ptr, align 8
  %14 = alloca ptr, align 8
  %15 = alloca i32, align 4
  %16 = alloca i32, align 4
  %17 = alloca ptr, align 8
  %18 = alloca i32, align 4
  %19 = alloca i32, align 4
  %20 = alloca i32, align 4
  %21 = alloca i32, align 4
  %22 = alloca i32, align 4
  %23 = alloca ptr, align 8
  %24 = alloca ptr, align 8
  %25 = alloca i32, align 4
  %26 = alloca i32, align 4
  store ptr %0, ptr %11, align 8
  store ptr %1, ptr %12, align 8
  store ptr %2, ptr %13, align 8
  store ptr %3, ptr %14, align 8
  store i32 %4, ptr %15, align 4
  store i32 %5, ptr %16, align 4
  store ptr %6, ptr %17, align 8
  store i32 %7, ptr %18, align 4
  store i32 %8, ptr %19, align 4
  call void @llvm.lifetime.start.p0(i64 4, ptr %20) #14
  call void @llvm.lifetime.start.p0(i64 4, ptr %21) #14
  call void @llvm.lifetime.start.p0(i64 4, ptr %22) #14
  call void @llvm.lifetime.start.p0(i64 8, ptr %23) #14
  call void @llvm.lifetime.start.p0(i64 8, ptr %24) #14
  call void @llvm.lifetime.start.p0(i64 4, ptr %25) #14
  %27 = load i32, ptr %15, align 4
  store i32 %27, ptr %25, align 4
  %28 = load i32, ptr %16, align 4
  %29 = icmp slt i32 %28, 1
  br i1 %29, label %30, label %36

30:                                               ; preds = %9
  %31 = load ptr, ptr %11, align 8
  %32 = load ptr, ptr %13, align 8
  %33 = load ptr, ptr %17, align 8
  %34 = call ptr @expert_add_info(ptr noundef %31, ptr noundef %32, ptr noundef %33)
  %35 = load i32, ptr %16, align 4
  store i32 %35, ptr %10, align 4
  store i32 1, ptr %26, align 4
  br label %73

36:                                               ; preds = %9
  %37 = load ptr, ptr %12, align 8
  %38 = load i32, ptr %18, align 4
  %39 = load ptr, ptr %14, align 8
  %40 = load i32, ptr %15, align 4
  %41 = call ptr @proto_tree_add_item_ret_uint(ptr noundef %37, i32 noundef %38, ptr noundef %39, i32 noundef %40, i32 noundef 1, i32 noundef 0, ptr noundef %21)
  store ptr %41, ptr %23, align 8
  %42 = load ptr, ptr %23, align 8
  %43 = load i32, ptr %19, align 4
  %44 = call ptr @proto_item_add_subtree(ptr noundef %42, i32 noundef %43)
  store ptr %44, ptr %24, align 8
  %45 = load i32, ptr %15, align 4
  %46 = add i32 %45, 1
  store i32 %46, ptr %15, align 4
  store i32 0, ptr %20, align 4
  br label %47

47:                                               ; preds = %62, %36
  %48 = load i32, ptr %20, align 4
  %49 = load i32, ptr %21, align 4
  %50 = icmp ult i32 %48, %49
  br i1 %50, label %51, label %65

51:                                               ; preds = %47
  %52 = load ptr, ptr %11, align 8
  %53 = load ptr, ptr %24, align 8
  %54 = load ptr, ptr %23, align 8
  %55 = load ptr, ptr %14, align 8
  %56 = load i32, ptr %15, align 4
  %57 = load i32, ptr %16, align 4
  %58 = call i32 @dissect_padded_epath_len_usint(ptr noundef %52, ptr noundef %53, ptr noundef %54, ptr noundef %55, i32 noundef %56, i32 noundef %57)
  store i32 %58, ptr %22, align 4
  %59 = load i32, ptr %22, align 4
  %60 = load i32, ptr %15, align 4
  %61 = add i32 %60, %59
  store i32 %61, ptr %15, align 4
  br label %62

62:                                               ; preds = %51
  %63 = load i32, ptr %20, align 4
  %64 = add i32 %63, 1
  store i32 %64, ptr %20, align 4
  br label %47, !llvm.loop !20

65:                                               ; preds = %47
  %66 = load ptr, ptr %23, align 8
  %67 = load i32, ptr %15, align 4
  %68 = load i32, ptr %25, align 4
  %69 = sub i32 %67, %68
  call void @proto_item_set_len(ptr noundef %66, i32 noundef %69)
  %70 = load i32, ptr %15, align 4
  %71 = load i32, ptr %25, align 4
  %72 = sub i32 %70, %71
  store i32 %72, ptr %10, align 4
  store i32 1, ptr %26, align 4
  br label %73

73:                                               ; preds = %65, %30
  call void @llvm.lifetime.end.p0(i64 4, ptr %25) #14
  call void @llvm.lifetime.end.p0(i64 8, ptr %24) #14
  call void @llvm.lifetime.end.p0(i64 8, ptr %23) #14
  call void @llvm.lifetime.end.p0(i64 4, ptr %22) #14
  call void @llvm.lifetime.end.p0(i64 4, ptr %21) #14
  call void @llvm.lifetime.end.p0(i64 4, ptr %20) #14
  %74 = load i32, ptr %10, align 4
  ret i32 %74
}

; Function Attrs: null_pointer_is_valid sspstrong uwtable
define internal i32 @dissect_eip_security_cert_revocation_list(ptr noundef %0, ptr noundef %1, ptr noundef %2, ptr noundef %3, i32 noundef %4, i32 noundef %5) #0 {
  %7 = alloca ptr, align 8
  %8 = alloca ptr, align 8
  %9 = alloca ptr, align 8
  %10 = alloca ptr, align 8
  %11 = alloca i32, align 4
  %12 = alloca i32, align 4
  store ptr %0, ptr %7, align 8
  store ptr %1, ptr %8, align 8
  store ptr %2, ptr %9, align 8
  store ptr %3, ptr %10, align 8
  store i32 %4, ptr %11, align 4
  store i32 %5, ptr %12, align 4
  %13 = load ptr, ptr %7, align 8
  %14 = load ptr, ptr %8, align 8
  %15 = load ptr, ptr %9, align 8
  %16 = load ptr, ptr %10, align 8
  %17 = load i32, ptr %11, align 4
  %18 = load i32, ptr %12, align 4
  %19 = load i32, ptr @hf_eip_security_num_crl, align 4
  %20 = load i32, ptr @ett_eip_security_crl, align 4
  %21 = call i32 @dissect_eip_security_cert_epath_list(ptr noundef %13, ptr noundef %14, ptr noundef %15, ptr noundef %16, i32 noundef %17, i32 noundef %18, ptr noundef @ei_mal_eip_security_crl, i32 noundef %19, i32 noundef %20)
  ret i32 %21
}